target datalayout = "e-m:e-p270:32:32-p271:32:32-p272:64:64-i64:64-i128:128-f80:128-n8:16:32:64-S128"
target triple = "x86_64-pc-linux-gnu"

%struct.uv_loop_s = type { ptr, i32, [2 x ptr], %union.anon, ptr, i32, i64, i32, [2 x ptr], [2 x ptr], ptr, i32, i32, [2 x ptr], %union.pthread_mutex_t, %struct.uv_async_s, %union.pthread_rwlock_t, ptr, [2 x ptr], [2 x ptr], [2 x ptr], [2 x ptr], [2 x ptr], ptr, %struct.uv__io_s, i32, %struct.anon, i64, i64, [2 x i32], %struct.uv__io_s, %struct.uv_signal_s, i32, %struct.uv__io_s, ptr, i32 }
%union.anon = type { ptr }
%union.pthread_mutex_t = type { %struct.__pthread_mutex_s }
%struct.__pthread_mutex_s = type { i32, i32, i32, i32, i32, i16, i16, %struct.__pthread_internal_list }
%struct.__pthread_internal_list = type { ptr, ptr }
%struct.uv_async_s = type { ptr, ptr, i32, ptr, [2 x ptr], %union.anon.0, ptr, i32, ptr, [2 x ptr], i32 }
%union.anon.0 = type { [4 x ptr] }
%union.pthread_rwlock_t = type { %struct.__pthread_rwlock_arch_t }
%struct.__pthread_rwlock_arch_t = type { i32, i32, i32, i32, i32, i32, i32, i32, i8, [7 x i8], i64, i32 }
%struct.anon = type { ptr, i32 }
%struct.uv_signal_s = type { ptr, ptr, i32, ptr, [2 x ptr], %union.anon.1, ptr, i32, ptr, i32, %struct.anon.2, i32, i32 }
%union.anon.1 = type { [4 x ptr] }
%struct.anon.2 = type { ptr, ptr, ptr, i32 }
%struct.uv__io_s = type { ptr, [2 x ptr], [2 x ptr], i32, i32, i32 }
%struct.uv__loop_internal_fields_s = type { i32, %struct.uv__loop_metrics_s }
%struct.uv__loop_metrics_s = type { i64, i64, %union.pthread_mutex_t }

; Function Attrs: nounwind uwtable
define dso_local void @uv__loop_close(ptr noundef %0) #0 {
  %2 = alloca ptr, align 8
  %3 = alloca ptr, align 8
  store ptr %0, ptr %2, align 8, !tbaa !4
  call void @llvm.lifetime.start.p0(i64 8, ptr %3) #4
  %4 = load ptr, ptr %2, align 8, !tbaa !4
  call void @uv__signal_loop_cleanup(ptr noundef %4)
  %5 = load ptr, ptr %2, align 8, !tbaa !4
  call void @uv__platform_loop_delete(ptr noundef %5)
  %6 = load ptr, ptr %2, align 8, !tbaa !4
  call void @uv__async_stop(ptr noundef %6)
  %7 = load ptr, ptr %2, align 8, !tbaa !4
  %8 = getelementptr inbounds nuw %struct.uv_loop_s, ptr %7, i32 0, i32 32
  %9 = load i32, ptr %8, align 8, !tbaa !35
  %10 = icmp ne i32 %9, -1
  br i1 %10, label %11, label %18

11:                                               ; preds = %1
  %12 = load ptr, ptr %2, align 8, !tbaa !4
  %13 = getelementptr inbounds nuw %struct.uv_loop_s, ptr %12, i32 0, i32 32
  %14 = load i32, ptr %13, align 8, !tbaa !35
  %15 = call i32 @uv__close(i32 noundef %14)
  %16 = load ptr, ptr %2, align 8, !tbaa !4
  %17 = getelementptr inbounds nuw %struct.uv_loop_s, ptr %16, i32 0, i32 32
  store i32 -1, ptr %17, align 8, !tbaa !35
  br label %18

18:                                               ; preds = %11, %1
  %19 = load ptr, ptr %2, align 8, !tbaa !4
  %20 = getelementptr inbounds nuw %struct.uv_loop_s, ptr %19, i32 0, i32 7
  %21 = load i32, ptr %20, align 8, !tbaa !34
  %22 = icmp ne i32 %21, -1
  br i1 %22, label %23, label %30

23:                                               ; preds = %18
  %24 = load ptr, ptr %2, align 8, !tbaa !4
  %25 = getelementptr inbounds nuw %struct.uv_loop_s, ptr %24, i32 0, i32 7
  %26 = load i32, ptr %25, align 8, !tbaa !34
  %27 = call i32 @uv__close(i32 noundef %26)
  %28 = load ptr, ptr %2, align 8, !tbaa !4
  %29 = getelementptr inbounds nuw %struct.uv_loop_s, ptr %28, i32 0, i32 7
  store i32 -1, ptr %29, align 8, !tbaa !34
  br label %30

30:                                               ; preds = %23, %18
  %31 = load ptr, ptr %2, align 8, !tbaa !4
  %32 = getelementptr inbounds nuw %struct.uv_loop_s, ptr %31, i32 0, i32 14
  call void @uv_mutex_lock(ptr noundef %32)
  %33 = load ptr, ptr %2, align 8, !tbaa !4
  %34 = getelementptr inbounds nuw %struct.uv_loop_s, ptr %33, i32 0, i32 14
  call void @uv_mutex_unlock(ptr noundef %34)
  %35 = load ptr, ptr %2, align 8, !tbaa !4
  %36 = getelementptr inbounds nuw %struct.uv_loop_s, ptr %35, i32 0, i32 14
  call void @uv_mutex_destroy(ptr noundef %36)
  %37 = load ptr, ptr %2, align 8, !tbaa !4
  %38 = getelementptr inbounds nuw %struct.uv_loop_s, ptr %37, i32 0, i32 16
  call void @uv_rwlock_destroy(ptr noundef %38)
  %39 = load ptr, ptr %2, align 8, !tbaa !4
  %40 = getelementptr inbounds nuw %struct.uv_loop_s, ptr %39, i32 0, i32 10
  %41 = load ptr, ptr %40, align 8, !tbaa !29
  call void @uv__free(ptr noundef %41)
  %42 = load ptr, ptr %2, align 8, !tbaa !4
  %43 = getelementptr inbounds nuw %struct.uv_loop_s, ptr %42, i32 0, i32 10
  store ptr null, ptr %43, align 8, !tbaa !29
  %44 = load ptr, ptr %2, align 8, !tbaa !4
  %45 = getelementptr inbounds nuw %struct.uv_loop_s, ptr %44, i32 0, i32 11
  store i32 0, ptr %45, align 8, !tbaa !30
  %46 = load ptr, ptr %2, align 8, !tbaa !4
  %47 = getelementptr inbounds nuw %struct.uv_loop_s, ptr %46, i32 0, i32 4
  %48 = load ptr, ptr %47, align 8, !tbaa !24
  store ptr %48, ptr %3, align 8, !tbaa !22
  %49 = load ptr, ptr %3, align 8, !tbaa !22
  %50 = getelementptr inbounds nuw %struct.uv__loop_internal_fields_s, ptr %49, i32 0, i32 1
  %51 = getelementptr inbounds nuw %struct.uv__loop_metrics_s, ptr %50, i32 0, i32 2
  call void @uv_mutex_destroy(ptr noundef %51)
  %52 = load ptr, ptr %3, align 8, !tbaa !22
  call void @uv__free(ptr noundef %52)
  %53 = load ptr, ptr %2, align 8, !tbaa !4
  %54 = getelementptr inbounds nuw %struct.uv_loop_s, ptr %53, i32 0, i32 4
  store ptr null, ptr %54, align 8, !tbaa !24
  call void @llvm.lifetime.end.p0(i64 8, ptr %3) #4
  ret void
}