; Function Attrs: nounwind uwtable
define dso_local void @uv__loop_close(ptr noundef %0) local_unnamed_addr #0 {
  tail call void @uv__signal_loop_cleanup(ptr noundef %0) #4
  tail call void @uv__platform_loop_delete(ptr noundef %0) #4
  tail call void @uv__async_stop(ptr noundef %0) #4
  %2 = getelementptr inbounds nuw i8, ptr %0, i64 768
  %3 = load i32, ptr %2, align 8, !tbaa !34
  %.not = icmp eq i32 %3, -1
  br i1 %.not, label %6, label %4

4:                                                ; preds = %1
  %5 = tail call i32 @uv__close(i32 noundef %3) #4
  store i32 -1, ptr %2, align 8, !tbaa !34
  br label %6

6:                                                ; preds = %4, %1
  %7 = getelementptr inbounds nuw i8, ptr %0, i64 64
  %8 = load i32, ptr %7, align 8, !tbaa !33
  %.not21 = icmp eq i32 %8, -1
  br i1 %.not21, label %11, label %9

9:                                                ; preds = %6
  %10 = tail call i32 @uv__close(i32 noundef %8) #4
  store i32 -1, ptr %7, align 8, !tbaa !33
  br label %11

11:                                               ; preds = %9, %6
  %12 = getelementptr inbounds nuw i8, ptr %0, i64 136
  tail call void @uv_mutex_lock(ptr noundef nonnull %12) #4
  tail call void @uv_mutex_unlock(ptr noundef nonnull %12) #4
  tail call void @uv_mutex_destroy(ptr noundef nonnull %12) #4
  %13 = getelementptr inbounds nuw i8, ptr %0, i64 304
  tail call void @uv_rwlock_destroy(ptr noundef nonnull %13) #4
  %14 = getelementptr inbounds nuw i8, ptr %0, i64 104
  %15 = load ptr, ptr %14, align 8, !tbaa !39
  tail call void @uv__free(ptr noundef %15) #4
  store ptr null, ptr %14, align 8, !tbaa !39
  %16 = getelementptr inbounds nuw i8, ptr %0, i64 112
  store i32 0, ptr %16, align 8, !tbaa !40
  %17 = getelementptr inbounds nuw i8, ptr %0, i64 40
  %18 = load ptr, ptr %17, align 8, !tbaa !20
  %19 = getelementptr inbounds nuw i8, ptr %18, i64 24
  tail call void @uv_mutex_destroy(ptr noundef nonnull %19) #4
  tail call void @uv__free(ptr noundef %18) #4
  store ptr null, ptr %17, align 8, !tbaa !20
  ret void
}